; Function Attrs: mustprogress uwtable
define noundef nonnull align 8 dereferenceable(369) ptr @_ZN32pxrInternal_v0_24__pxrReserved__37UsdImagingGetUnitCylinderMeshTopologyEv() local_unnamed_addr #0 personality ptr @__gxx_personality_v0 {
  %1 = alloca [30 x i32], align 4
  %2 = alloca [100 x i32], align 4
  %3 = load atomic i8, ptr @_ZGVZN32pxrInternal_v0_24__pxrReserved__37UsdImagingGetUnitCylinderMeshTopologyEvE8numVerts acquire, align 8
  %4 = icmp eq i8 %3, 0
  br i1 %4, label %5, label %10, !prof !4

5:                                                ; preds = %0
  %6 = tail call i32 @__cxa_guard_acquire(ptr nonnull @_ZGVZN32pxrInternal_v0_24__pxrReserved__37UsdImagingGetUnitCylinderMeshTopologyEvE8numVerts) #12
  %.not = icmp eq i32 %6, 0
  br i1 %.not, label %10, label %7

7:                                                ; preds = %5
  call void @llvm.memcpy.p0.p0.i64(ptr noundef nonnull align 4 dereferenceable(120) %1, ptr noundef nonnull align 4 dereferenceable(120) @constinit.9, i64 120, i1 false)
  invoke void @_ZN32pxrInternal_v0_24__pxrReserved__7VtArrayIiEC1ESt16initializer_listIiE(ptr noundef nonnull align 8 dereferenceable(40) @_ZZN32pxrInternal_v0_24__pxrReserved__37UsdImagingGetUnitCylinderMeshTopologyEvE8numVerts, ptr nonnull %1, i64 30)
          to label %8 unwind label %33

8:                                                ; preds = %7
  %9 = call i32 @__cxa_atexit(ptr nonnull @_ZN32pxrInternal_v0_24__pxrReserved__7VtArrayIiED1Ev, ptr nonnull @_ZZN32pxrInternal_v0_24__pxrReserved__37UsdImagingGetUnitCylinderMeshTopologyEvE8numVerts, ptr nonnull @__dso_handle) #12
  call void @__cxa_guard_release(ptr nonnull @_ZGVZN32pxrInternal_v0_24__pxrReserved__37UsdImagingGetUnitCylinderMeshTopologyEvE8numVerts) #12
  br label %10

10:                                               ; preds = %8, %5, %0
  %11 = load atomic i8, ptr @_ZGVZN32pxrInternal_v0_24__pxrReserved__37UsdImagingGetUnitCylinderMeshTopologyEvE5verts acquire, align 8
  %12 = icmp eq i8 %11, 0
  br i1 %12, label %13, label %18, !prof !4

13:                                               ; preds = %10
  %14 = call i32 @__cxa_guard_acquire(ptr nonnull @_ZGVZN32pxrInternal_v0_24__pxrReserved__37UsdImagingGetUnitCylinderMeshTopologyEvE5verts) #12
  %.not4 = icmp eq i32 %14, 0
  br i1 %.not4, label %18, label %15

15:                                               ; preds = %13
  call void @llvm.memcpy.p0.p0.i64(ptr noundef nonnull align 4 dereferenceable(400) %2, ptr noundef nonnull align 4 dereferenceable(400) @constinit.10, i64 400, i1 false)
  invoke void @_ZN32pxrInternal_v0_24__pxrReserved__7VtArrayIiEC1ESt16initializer_listIiE(ptr noundef nonnull align 8 dereferenceable(40) @_ZZN32pxrInternal_v0_24__pxrReserved__37UsdImagingGetUnitCylinderMeshTopologyEvE5verts, ptr nonnull %2, i64 100)
          to label %16 unwind label %35

16:                                               ; preds = %15
  %17 = call i32 @__cxa_atexit(ptr nonnull @_ZN32pxrInternal_v0_24__pxrReserved__7VtArrayIiED1Ev, ptr nonnull @_ZZN32pxrInternal_v0_24__pxrReserved__37UsdImagingGetUnitCylinderMeshTopologyEvE5verts, ptr nonnull @__dso_handle) #12
  call void @__cxa_guard_release(ptr nonnull @_ZGVZN32pxrInternal_v0_24__pxrReserved__37UsdImagingGetUnitCylinderMeshTopologyEvE5verts) #12
  br label %18

18:                                               ; preds = %16, %13, %10
  %19 = load atomic i8, ptr @_ZGVZN32pxrInternal_v0_24__pxrReserved__37UsdImagingGetUnitCylinderMeshTopologyEvE12cylinderTopo acquire, align 8
  %20 = icmp eq i8 %19, 0
  br i1 %20, label %21, label %32, !prof !4

21:                                               ; preds = %18
  %22 = call i32 @__cxa_guard_acquire(ptr nonnull @_ZGVZN32pxrInternal_v0_24__pxrReserved__37UsdImagingGetUnitCylinderMeshTopologyEvE12cylinderTopo) #12
  %.not5 = icmp eq i32 %22, 0
  br i1 %.not5, label %32, label %23

23:                                               ; preds = %21
  %24 = invoke noundef ptr @_ZNK32pxrInternal_v0_24__pxrReserved__12TfStaticDataINS_37PxOsdOpenSubdivTokens_StaticTokenTypeENS_27Tf_StaticDataDefaultFactoryIS1_EEEptEv(ptr noundef nonnull align 8 dereferenceable(8) @_ZN32pxrInternal_v0_24__pxrReserved__21PxOsdOpenSubdivTokensE)
          to label %25 unwind label %37

25:                                               ; preds = %23
  %26 = invoke noundef ptr @_ZNK32pxrInternal_v0_24__pxrReserved__12TfStaticDataINS_37PxOsdOpenSubdivTokens_StaticTokenTypeENS_27Tf_StaticDataDefaultFactoryIS1_EEEptEv(ptr noundef nonnull align 8 dereferenceable(8) @_ZN32pxrInternal_v0_24__pxrReserved__21PxOsdOpenSubdivTokensE)
          to label %27 unwind label %37

27:                                               ; preds = %25
  %28 = getelementptr inbounds nuw i8, ptr %24, i64 56
  %29 = getelementptr inbounds nuw i8, ptr %26, i64 112
  invoke void @_ZN32pxrInternal_v0_24__pxrReserved__17PxOsdMeshTopologyC1ERKNS_7TfTokenES3_RKNS_7VtArrayIiEES7_(ptr noundef nonnull align 8 dereferenceable(369) @_ZZN32pxrInternal_v0_24__pxrReserved__37UsdImagingGetUnitCylinderMeshTopologyEvE12cylinderTopo, ptr noundef nonnull align 8 dereferenceable(8) %28, ptr noundef nonnull align 8 dereferenceable(8) %29, ptr noundef nonnull align 8 dereferenceable(40) @_ZZN32pxrInternal_v0_24__pxrReserved__37UsdImagingGetUnitCylinderMeshTopologyEvE8numVerts, ptr noundef nonnull align 8 dereferenceable(40) @_ZZN32pxrInternal_v0_24__pxrReserved__37UsdImagingGetUnitCylinderMeshTopologyEvE5verts)
          to label %30 unwind label %37

30:                                               ; preds = %27
  %31 = call i32 @__cxa_atexit(ptr nonnull @_ZN32pxrInternal_v0_24__pxrReserved__17PxOsdMeshTopologyD2Ev, ptr nonnull @_ZZN32pxrInternal_v0_24__pxrReserved__37UsdImagingGetUnitCylinderMeshTopologyEvE12cylinderTopo, ptr nonnull @__dso_handle) #12
  call void @__cxa_guard_release(ptr nonnull @_ZGVZN32pxrInternal_v0_24__pxrReserved__37UsdImagingGetUnitCylinderMeshTopologyEvE12cylinderTopo) #12
  br label %32

32:                                               ; preds = %30, %21, %18
  ret ptr @_ZZN32pxrInternal_v0_24__pxrReserved__37UsdImagingGetUnitCylinderMeshTopologyEvE12cylinderTopo

33:                                               ; preds = %7
  %34 = landingpad { ptr, i32 }
          cleanup
  br label %39

35:                                               ; preds = %15
  %36 = landingpad { ptr, i32 }
          cleanup
  br label %39

37:                                               ; preds = %27, %25, %23
  %38 = landingpad { ptr, i32 }
          cleanup
  br label %39

39:                                               ; preds = %37, %35, %33
  %_ZGVZN32pxrInternal_v0_24__pxrReserved__37UsdImagingGetUnitCylinderMeshTopologyEvE12cylinderTopo.sink = phi ptr [ @_ZGVZN32pxrInternal_v0_24__pxrReserved__37UsdImagingGetUnitCylinderMeshTopologyEvE12cylinderTopo, %37 ], [ @_ZGVZN32pxrInternal_v0_24__pxrReserved__37UsdImagingGetUnitCylinderMeshTopologyEvE5verts, %35 ], [ @_ZGVZN32pxrInternal_v0_24__pxrReserved__37UsdImagingGetUnitCylinderMeshTopologyEvE8numVerts, %33 ]
  %.pn = phi { ptr, i32 } [ %38, %37 ], [ %36, %35 ], [ %34, %33 ]
  call void @__cxa_guard_abort(ptr nonnull %_ZGVZN32pxrInternal_v0_24__pxrReserved__37UsdImagingGetUnitCylinderMeshTopologyEvE12cylinderTopo.sink) #12
  resume { ptr, i32 } %.pn
}